; Function Attrs: mustprogress uwtable
define noundef zeroext i1 @_ZN4YAML7Scanner5emptyEv(ptr noundef nonnull align 8 dereferenceable(488) %0) local_unnamed_addr #0 align 2 {
  %2 = getelementptr inbounds nuw i8, ptr %0, i64 136
  %3 = getelementptr inbounds nuw i8, ptr %0, i64 184
  %4 = getelementptr inbounds nuw i8, ptr %0, i64 152
  %5 = getelementptr inbounds nuw i8, ptr %0, i64 217
  br label %.backedge.i

.backedge.i:                                      ; preds = %.backedge.i.backedge, %1
  %6 = load ptr, ptr %3, align 8, !tbaa !42
  %7 = load ptr, ptr %4, align 8, !tbaa !42
  %8 = icmp eq ptr %6, %7
  br i1 %8, label %.thread.i, label %9

9:                                                ; preds = %.backedge.i
  %10 = load i32, ptr %7, align 8, !tbaa !46
  switch i32 %10, label %.thread.i [
    i32 0, label %_ZN4YAML7Scanner19EnsureTokensInQueueEv.exit
    i32 1, label %11
  ]

11:                                               ; preds = %9
  tail call void @_ZNSt5dequeIN4YAML5TokenESaIS1_EE9pop_frontEv(ptr noundef nonnull align 8 dereferenceable(80) %2) #23
  br label %.backedge.i.backedge

.thread.i:                                        ; preds = %9, %.backedge.i
  %12 = load i8, ptr %5, align 1, !tbaa !60, !range !93, !noundef !94
  %13 = trunc nuw i8 %12 to i1
  br i1 %13, label %_ZN4YAML7Scanner19EnsureTokensInQueueEv.exit, label %14

14:                                               ; preds = %.thread.i
  tail call void @_ZN4YAML7Scanner13ScanNextTokenEv(ptr noundef nonnull align 8 dereferenceable(488) %0)
  br label %.backedge.i.backedge

.backedge.i.backedge:                             ; preds = %14, %11
  br label %.backedge.i, !llvm.loop !95

_ZN4YAML7Scanner19EnsureTokensInQueueEv.exit:     ; preds = %9, %.thread.i
  %.lcssa = phi i1 [ false, %9 ], [ %8, %.thread.i ]
  ret i1 %.lcssa
}